	.file	"integrate.c"
	.text
	.globl	func
	.type	func, @function
func:
.LFB0:
	.cfi_startproc
	endbr64
	pushq	%rbp
	.cfi_def_cfa_offset 16
	.cfi_offset 6, -16
	movq	%rsp, %rbp
	.cfi_def_cfa_register 6
	movsd	%xmm0, -8(%rbp)
	movsd	%xmm1, -16(%rbp)
	movsd	%xmm2, -24(%rbp)
	movsd	-24(%rbp), %xmm0
	mulsd	-8(%rbp), %xmm0
	mulsd	-8(%rbp), %xmm0
	mulsd	-8(%rbp), %xmm0
	addsd	-16(%rbp), %xmm0
	movq	%xmm0, %rax
	movq	%rax, %xmm0
	popq	%rbp
	.cfi_def_cfa 7, 8
	ret
	.cfi_endproc
.LFE0:
	.size	func, .-func
	.globl	integrate
	.type	integrate, @function
integrate:
.LFB1:
	.cfi_startproc
	endbr64
	pushq	%rbp
	.cfi_def_cfa_offset 16
	.cfi_offset 6, -16
	movq	%rsp, %rbp
	.cfi_def_cfa_register 6
	subq	$56, %rsp
	movl	%edi, -36(%rbp)
	movl	%esi, -40(%rbp)
	movl	%edx, -44(%rbp)
	movl	-40(%rbp), %eax
	subl	-36(%rbp), %eax
	cltd
	idivl	-44(%rbp)
	pxor	%xmm0, %xmm0
	cvtsi2sdl	%eax, %xmm0
	movsd	%xmm0, -8(%rbp)
	pxor	%xmm1, %xmm1
	cvtsi2sdl	-40(%rbp), %xmm1
	pxor	%xmm0, %xmm0
	cvtsi2sdl	-36(%rbp), %xmm0
	pxor	%xmm3, %xmm3
	cvtsi2sdl	-36(%rbp), %xmm3
	movq	%xmm3, %rax
	movapd	%xmm1, %xmm2
	movapd	%xmm0, %xmm1
	movq	%rax, %xmm0
	call	func
	movsd	%xmm0, -56(%rbp)
	pxor	%xmm1, %xmm1
	cvtsi2sdl	-40(%rbp), %xmm1
	pxor	%xmm0, %xmm0
	cvtsi2sdl	-36(%rbp), %xmm0
	pxor	%xmm4, %xmm4
	cvtsi2sdl	-40(%rbp), %xmm4
	movq	%xmm4, %rax
	movapd	%xmm1, %xmm2
	movapd	%xmm0, %xmm1
	movq	%rax, %xmm0
	call	func
	addsd	-56(%rbp), %xmm0
	movsd	.LC0(%rip), %xmm1
	divsd	%xmm1, %xmm0
	movsd	%xmm0, -24(%rbp)
	pxor	%xmm0, %xmm0
	cvtsi2sdl	-36(%rbp), %xmm0
	movsd	-8(%rbp), %xmm1
	addsd	%xmm1, %xmm0
	movsd	%xmm0, -16(%rbp)
	jmp	.L4
.L5:
	pxor	%xmm1, %xmm1
	cvtsi2sdl	-40(%rbp), %xmm1
	pxor	%xmm0, %xmm0
	cvtsi2sdl	-36(%rbp), %xmm0
	movq	-16(%rbp), %rax
	movapd	%xmm1, %xmm2
	movapd	%xmm0, %xmm1
	movq	%rax, %xmm0
	call	func
	movsd	-24(%rbp), %xmm1
	addsd	%xmm1, %xmm0
	movsd	%xmm0, -24(%rbp)
	movsd	-16(%rbp), %xmm1
	movsd	.LC1(%rip), %xmm0
	addsd	%xmm1, %xmm0
	movsd	%xmm0, -16(%rbp)
.L4:
	pxor	%xmm0, %xmm0
	cvtsi2sdl	-40(%rbp), %xmm0
	comisd	-16(%rbp), %xmm0
	ja	.L5
	movsd	-24(%rbp), %xmm0
	movq	%xmm0, %rax
	movq	%rax, %xmm0
	leave
	.cfi_def_cfa 7, 8
	ret
	.cfi_endproc
.LFE1:
	.size	integrate, .-integrate
	.section	.rodata
.LC2:
	.string	"%d"
.LC3:
	.string	"%f"
	.text
	.globl	main
	.type	main, @function
main:
.LFB2:
	.cfi_startproc
	endbr64
	pushq	%rbp
	.cfi_def_cfa_offset 16
	.cfi_offset 6, -16
	movq	%rsp, %rbp
	.cfi_def_cfa_register 6
	subq	$32, %rsp
	movq	%fs:40, %rax
	movq	%rax, -8(%rbp)
	xorl	%eax, %eax
	leaq	-28(%rbp), %rax
	movq	%rax, %rsi
	leaq	.LC2(%rip), %rax
	movq	%rax, %rdi
	movl	$0, %eax
	call	__isoc99_scanf@PLT
	leaq	-24(%rbp), %rax
	movq	%rax, %rsi
	leaq	.LC2(%rip), %rax
	movq	%rax, %rdi
	movl	$0, %eax
	call	__isoc99_scanf@PLT
	leaq	-20(%rbp), %rax
	movq	%rax, %rsi
	leaq	.LC2(%rip), %rax
	movq	%rax, %rdi
	movl	$0, %eax
	call	__isoc99_scanf@PLT
	movl	-20(%rbp), %edx
	movl	-24(%rbp), %ecx
	movl	-28(%rbp), %eax
	movl	%ecx, %esi
	movl	%eax, %edi
	call	integrate
	movq	%xmm0, %rax
	movq	%rax, -16(%rbp)
	movq	-16(%rbp), %rax
	movq	%rax, %xmm0
	leaq	.LC3(%rip), %rax
	movq	%rax, %rdi
	movl	$1, %eax
	call	printf@PLT
	movl	$0, %eax
	movq	-8(%rbp), %rdx
	subq	%fs:40, %rdx
	je	.L9
	call	__stack_chk_fail@PLT
.L9:
	leave
	.cfi_def_cfa 7, 8
	ret
	.cfi_endproc
.LFE2:
	.size	main, .-main
	.section	.rodata
	.align 8
.LC0:
	.long	0
	.long	1073741824
	.align 8
.LC1:
	.long	0
	.long	1072693248
	.ident	"GCC: (Ubuntu 11.2.0-19ubuntu1) 11.2.0"
	.section	.note.GNU-stack,"",@progbits
	.section	.note.gnu.property,"a"
	.align 8
	.long	1f - 0f
	.long	4f - 1f
	.long	5
0:
	.string	"GNU"
1:
	.align 8
	.long	0xc0000002
	.long	3f - 2f
2:
	.long	0x3
3:
	.align 8
4:
